; Function Attrs: nounwind uwtable
define i32 @Supp_ManRandomSolution(ptr noundef readonly captures(none) %0, i32 noundef %1, i32 noundef %2) local_unnamed_addr #3 {
  %4 = getelementptr inbounds nuw i8, ptr %0, i64 192
  %5 = load ptr, ptr %4, align 8, !tbaa !86
  %6 = getelementptr inbounds nuw i8, ptr %5, i64 4
  store i32 0, ptr %6, align 4, !tbaa !30
  %7 = getelementptr inbounds nuw i8, ptr %0, i64 168
  %8 = load ptr, ptr %7, align 8, !tbaa !40
  %9 = getelementptr i8, ptr %8, i64 8
  %.val.i30 = load ptr, ptr %9, align 8, !tbaa !34
  %10 = sext i32 %1 to i64
  %11 = getelementptr inbounds i32, ptr %.val.i30, i64 %10
  %12 = load i32, ptr %11, align 4, !tbaa !35
  %13 = icmp sgt i32 %12, 0
  br i1 %13, label %.lr.ph, label %.thread

.lr.ph:                                           ; preds = %3, %53
  %.02331 = phi i32 [ %18, %53 ], [ %1, %3 ]
  %14 = tail call i32 @Supp_ComputePair(ptr noundef nonnull %0, i32 noundef %.02331)
  %15 = tail call i32 @Supp_FindNextDiv(ptr noundef nonnull %0, i32 noundef %14)
  %16 = icmp eq i32 %15, -1
  br i1 %16, label %.thread, label %17

17:                                               ; preds = %.lr.ph
  %18 = tail call i32 @Supp_ManSubsetAdd(ptr noundef nonnull %0, i32 noundef %.02331, i32 noundef %15, i32 noundef %2)
  %19 = load ptr, ptr %7, align 8, !tbaa !40
  %20 = getelementptr i8, ptr %19, i64 8
  %.val.i26 = load ptr, ptr %20, align 8, !tbaa !34
  %21 = sext i32 %18 to i64
  %22 = getelementptr inbounds i32, ptr %.val.i26, i64 %21
  %23 = load i32, ptr %22, align 4, !tbaa !35
  %24 = icmp sgt i32 %23, 0
  br i1 %24, label %25, label %._crit_edge

25:                                               ; preds = %17
  %26 = load ptr, ptr %4, align 8, !tbaa !86
  %27 = getelementptr inbounds nuw i8, ptr %26, i64 4
  %28 = load i32, ptr %27, align 4, !tbaa !30
  %29 = load i32, ptr %26, align 8, !tbaa !33
  %30 = icmp eq i32 %28, %29
  br i1 %30, label %31, label %.Vec_IntGrow.exit10_crit_edge.i

.Vec_IntGrow.exit10_crit_edge.i:                  ; preds = %25
  %.phi.trans.insert.i = getelementptr inbounds nuw i8, ptr %26, i64 8
  %.pre.i = load ptr, ptr %.phi.trans.insert.i, align 8, !tbaa !34
  br label %53

31:                                               ; preds = %25
  %32 = icmp slt i32 %28, 16
  br i1 %32, label %33, label %41

33:                                               ; preds = %31
  %34 = getelementptr inbounds nuw i8, ptr %26, i64 8
  %35 = load ptr, ptr %34, align 8, !tbaa !34
  %.not9.i.i = icmp eq ptr %35, null
  br i1 %.not9.i.i, label %38, label %36

36:                                               ; preds = %33
  %37 = tail call dereferenceable_or_null(64) ptr @realloc(ptr noundef nonnull %35, i64 noundef 64) #30
  br label %Vec_IntGrow.exit.i

38:                                               ; preds = %33
  %39 = tail call noalias dereferenceable_or_null(64) ptr @malloc(i64 noundef 64) #31
  br label %Vec_IntGrow.exit.i

Vec_IntGrow.exit.i:                               ; preds = %38, %36
  %40 = phi ptr [ %37, %36 ], [ %39, %38 ]
  store ptr %40, ptr %34, align 8, !tbaa !34
  store i32 16, ptr %26, align 8, !tbaa !33
  br label %53

41:                                               ; preds = %31
  %42 = shl nuw nsw i32 %28, 1
  %43 = getelementptr inbounds nuw i8, ptr %26, i64 8
  %44 = load ptr, ptr %43, align 8, !tbaa !34
  %.not9.i9.i = icmp eq ptr %44, null
  %45 = zext nneg i32 %42 to i64
  %46 = shl nuw nsw i64 %45, 2
  br i1 %.not9.i9.i, label %49, label %47

47:                                               ; preds = %41
  %48 = tail call ptr @realloc(ptr noundef nonnull %44, i64 noundef %46) #30
  br label %51

49:                                               ; preds = %41
  %50 = tail call noalias ptr @malloc(i64 noundef %46) #31
  br label %51

51:                                               ; preds = %49, %47
  %52 = phi ptr [ %48, %47 ], [ %50, %49 ]
  store ptr %52, ptr %43, align 8, !tbaa !34
  store i32 %42, ptr %26, align 8, !tbaa !33
  br label %53

53:                                               ; preds = %51, %Vec_IntGrow.exit.i, %.Vec_IntGrow.exit10_crit_edge.i
  %54 = phi ptr [ %.pre.i, %.Vec_IntGrow.exit10_crit_edge.i ], [ %52, %51 ], [ %40, %Vec_IntGrow.exit.i ]
  %55 = load i32, ptr %27, align 4, !tbaa !30
  %56 = add nsw i32 %55, 1
  store i32 %56, ptr %27, align 4, !tbaa !30
  %57 = sext i32 %55 to i64
  %58 = getelementptr inbounds i32, ptr %54, i64 %57
  store i32 %18, ptr %58, align 4, !tbaa !35
  %.pre = load ptr, ptr %7, align 8, !tbaa !40
  %.phi.trans.insert = getelementptr i8, ptr %.pre, i64 8
  %.val.i.pre = load ptr, ptr %.phi.trans.insert, align 8, !tbaa !34
  %.phi.trans.insert33 = getelementptr inbounds i32, ptr %.val.i.pre, i64 %21
  %.pre34 = load i32, ptr %.phi.trans.insert33, align 4, !tbaa !35
  %59 = icmp sgt i32 %.pre34, 0
  br i1 %59, label %.lr.ph, label %._crit_edge

._crit_edge:                                      ; preds = %17, %53
  %.pre35 = load ptr, ptr %4, align 8, !tbaa !86
  %.phi.trans.insert36 = getelementptr i8, ptr %.pre35, i64 4
  %.val.pre = load i32, ptr %.phi.trans.insert36, align 4, !tbaa !30
  %60 = icmp slt i32 %.val.pre, 2
  br i1 %60, label %.thread, label %61

61:                                               ; preds = %._crit_edge
  tail call void @Supp_ManAddPatterns(ptr noundef nonnull %0, ptr noundef nonnull %.pre35)
  br label %.thread

.thread:                                          ; preds = %.lr.ph, %3, %._crit_edge, %61
  %.2 = phi i32 [ %18, %61 ], [ %18, %._crit_edge ], [ %1, %3 ], [ -1, %.lr.ph ]
  ret i32 %.2
}